target datalayout = "e-m:e-p270:32:32-p271:32:32-p272:64:64-i64:64-i128:128-f80:128-n8:16:32:64-S128"
target triple = "x86_64-pc-linux-gnu"

%struct.cmLoadedCommandInfo = type { i64, i64, ptr, i32, ptr, ptr, ptr, ptr, ptr, ptr, ptr, ptr }

; Function Attrs: mustprogress nounwind uwtable
define internal void @_ZL10cmSetErrorPvPKc(ptr noundef %0, ptr noundef %1) #4 {
  %3 = alloca ptr, align 8
  %4 = alloca ptr, align 8
  store ptr %0, ptr %3, align 8
  store ptr %1, ptr %4, align 8
  %5 = load ptr, ptr %3, align 8
  %6 = getelementptr inbounds %struct.cmLoadedCommandInfo, ptr %5, i32 0, i32 10
  %7 = load ptr, ptr %6, align 8
  %8 = icmp ne ptr %7, null
  br i1 %8, label %9, label %13

9:                                                ; preds = %2
  %10 = load ptr, ptr %3, align 8
  %11 = getelementptr inbounds %struct.cmLoadedCommandInfo, ptr %10, i32 0, i32 10
  %12 = load ptr, ptr %11, align 8
  call void @free(ptr noundef %12) #3
  br label %13

13:                                               ; preds = %9, %2
  %14 = load ptr, ptr %4, align 8
  %15 = call noalias ptr @strdup(ptr noundef %14) #3
  %16 = load ptr, ptr %3, align 8
  %17 = getelementptr inbounds %struct.cmLoadedCommandInfo, ptr %16, i32 0, i32 10
  store ptr %15, ptr %17, align 8
  ret void
}