; Function Attrs: mustprogress nounwind willreturn uwtable
define internal void @_ZL10cmSetErrorPvPKc(ptr nocapture noundef %0, ptr nocapture noundef readonly %1) #18 {
  %3 = getelementptr inbounds i8, ptr %0, i64 80
  %4 = load ptr, ptr %3, align 8
  %.not = icmp eq ptr %4, null
  br i1 %.not, label %6, label %5

5:                                                ; preds = %2
  tail call void @free(ptr noundef nonnull %4) #30
  br label %6

6:                                                ; preds = %5, %2
  %7 = tail call noalias ptr @strdup(ptr noundef %1) #30
  store ptr %7, ptr %3, align 8
  ret void
}